; Function Attrs: mustprogress noreturn uwtable
define void @_ZN2cv7addTextERKNS_3MatERKNSt7__cxx1112basic_stringIcSt11char_traitsIcESaIcEEENS_6Point_IiEERKNS_6QtFontE(ptr nocapture noundef nonnull readnone align 8 dereferenceable(96) %0, ptr nocapture noundef nonnull readnone align 8 dereferenceable(32) %1, i64 %2, ptr nocapture noundef nonnull readnone align 8 dereferenceable(96) %3) local_unnamed_addr #9 personality ptr @__gxx_personality_v0 {
  %5 = alloca %"class.std::__cxx11::basic_string", align 8
  %6 = alloca %"class.std::allocator", align 1
  call void @_ZNSaIcEC1Ev(ptr noundef nonnull align 1 dereferenceable(1) %6) #20
  invoke void @_ZNSt7__cxx1112basic_stringIcSt11char_traitsIcESaIcEEC1EPKcRKS3_(ptr noundef nonnull align 8 dereferenceable(32) %5, ptr noundef nonnull @.str.46, ptr noundef nonnull align 1 dereferenceable(1) %6)
          to label %7 unwind label %9

7:                                                ; preds = %4
  invoke void @_ZN2cv5errorEiRKNSt7__cxx1112basic_stringIcSt11char_traitsIcESaIcEEEPKcS9_i(i32 noundef -213, ptr noundef nonnull align 8 dereferenceable(32) %5, ptr noundef nonnull @__func__._ZN2cv7addTextERKNS_3MatERKNSt7__cxx1112basic_stringIcSt11char_traitsIcESaIcEEENS_6Point_IiEERKNS_6QtFontE, ptr noundef nonnull @.str.1, i32 noundef 1213) #22
          to label %8 unwind label %11

8:                                                ; preds = %7
  unreachable

9:                                                ; preds = %4
  %10 = landingpad { ptr, i32 }
          cleanup
  br label %13

11:                                               ; preds = %7
  %12 = landingpad { ptr, i32 }
          cleanup
  call void @_ZNSt7__cxx1112basic_stringIcSt11char_traitsIcESaIcEED1Ev(ptr noundef nonnull align 8 dereferenceable(32) %5) #20
  br label %13

13:                                               ; preds = %11, %9
  %.pn = phi { ptr, i32 } [ %12, %11 ], [ %10, %9 ]
  call void @_ZNSaIcED1Ev(ptr noundef nonnull align 1 dereferenceable(1) %6) #20
  resume { ptr, i32 } %.pn
}